; Function Attrs: nounwind uwtable
define zeroext i1 @zend_ini_parse_bool(ptr noundef %0) local_unnamed_addr #0 {
  %2 = getelementptr inbounds i8, ptr %0, i64 16
  %3 = load i64, ptr %2, align 8
  %4 = icmp eq i64 %3, 4
  br i1 %4, label %5, label %8

5:                                                ; preds = %1
  %6 = getelementptr inbounds i8, ptr %0, i64 24
  %7 = tail call i32 @zend_binary_strcasecmp(ptr noundef nonnull %6, i64 noundef 4, ptr noundef nonnull @.str.1, i64 noundef 4) #20
  %.not = icmp eq i32 %7, 0
  br i1 %.not, label %24, label %thread-pre-split

thread-pre-split:                                 ; preds = %5
  %.pr = load i64, ptr %2, align 8
  br label %8

8:                                                ; preds = %thread-pre-split, %1
  %9 = phi i64 [ %.pr, %thread-pre-split ], [ %3, %1 ]
  %10 = icmp eq i64 %9, 3
  br i1 %10, label %11, label %14

11:                                               ; preds = %8
  %12 = getelementptr inbounds i8, ptr %0, i64 24
  %13 = tail call i32 @zend_binary_strcasecmp(ptr noundef nonnull %12, i64 noundef 3, ptr noundef nonnull @.str.2, i64 noundef 3) #20
  %.not14 = icmp eq i32 %13, 0
  br i1 %.not14, label %24, label %._crit_edge

._crit_edge:                                      ; preds = %11
  %.pre = load i64, ptr %2, align 8
  br label %14

14:                                               ; preds = %._crit_edge, %8
  %15 = phi i64 [ %.pre, %._crit_edge ], [ %9, %8 ]
  %16 = icmp eq i64 %15, 2
  br i1 %16, label %17, label %20

17:                                               ; preds = %14
  %18 = getelementptr inbounds i8, ptr %0, i64 24
  %19 = tail call i32 @zend_binary_strcasecmp(ptr noundef nonnull %18, i64 noundef 2, ptr noundef nonnull @.str.3, i64 noundef 2) #20
  %.not15 = icmp eq i32 %19, 0
  br i1 %.not15, label %24, label %20

20:                                               ; preds = %17, %14
  %21 = getelementptr inbounds i8, ptr %0, i64 24
  %22 = tail call i32 @atoi(ptr nocapture noundef nonnull %21) #22
  %23 = icmp ne i32 %22, 0
  br label %24

24:                                               ; preds = %5, %11, %17, %20
  %.0 = phi i1 [ %23, %20 ], [ true, %17 ], [ true, %11 ], [ true, %5 ]
  ret i1 %.0
}